target datalayout = "e-m:e-p270:32:32-p271:32:32-p272:64:64-i64:64-i128:128-f80:128-n8:16:32:64-S128"
target triple = "x86_64-unknown-linux-gnu"

%"class.std::vector" = type { %"struct.std::_Vector_base" }
%"struct.std::_Vector_base" = type { %"struct.std::_Vector_base<int, std::allocator<int>>::_Vector_impl" }
%"struct.std::_Vector_base<int, std::allocator<int>>::_Vector_impl" = type { %"struct.std::_Vector_base<int, std::allocator<int>>::_Vector_impl_data" }
%"struct.std::_Vector_base<int, std::allocator<int>>::_Vector_impl_data" = type { ptr, ptr, ptr }
%"class.base::BucketRanges" = type <{ %"class.std::vector", i32, [4 x i8] }>
%"class.base::SampleVectorIterator" = type { %"class.base::SampleCountIterator", ptr, i64, ptr, i64 }
%"class.base::SampleCountIterator" = type { ptr }

; Function Attrs: noreturn nounwind uwtable
define linkonce_odr hidden void @__clang_call_terminate(ptr noundef %0) #6 comdat {
  %2 = call ptr @__cxa_begin_catch(ptr %0) #8
  call void @_ZSt9terminatev() #9
  unreachable
}

; Function Attrs: mustprogress nounwind uwtable
define linkonce_odr dso_local noundef i32 @_ZStanSt12memory_orderSt23__memory_order_modifier(i32 noundef %__m, i32 noundef %__mod) #2 comdat {
entry:
  %__m.addr = alloca i32, align 4
  %__mod.addr = alloca i32, align 4
  store i32 %__m, ptr %__m.addr, align 4
  store i32 %__mod, ptr %__mod.addr, align 4
  %0 = load i32, ptr %__m.addr, align 4
  %1 = load i32, ptr %__mod.addr, align 4
  %and = and i32 %0, %1
  ret i32 %and
}

; Function Attrs: mustprogress nounwind uwtable
define linkonce_odr dso_local noundef nonnull align 4 dereferenceable(4) ptr @_ZNKSt6vectorIiSaIiEEixEm(ptr noundef nonnull align 8 dereferenceable(24) %this, i64 noundef %__n) #2 comdat align 2 {
entry:
  %this.addr = alloca ptr, align 8
  %__n.addr = alloca i64, align 8
  store ptr %this, ptr %this.addr, align 8
  store i64 %__n, ptr %__n.addr, align 8
  %this1 = load ptr, ptr %this.addr, align 8
  %_M_impl = getelementptr inbounds %"struct.std::_Vector_base", ptr %this1, i32 0, i32 0
  %_M_start = getelementptr inbounds %"struct.std::_Vector_base<int, std::allocator<int>>::_Vector_impl_data", ptr %_M_impl, i32 0, i32 0
  %0 = load ptr, ptr %_M_start, align 8
  %1 = load i64, ptr %__n.addr, align 8
  %add.ptr = getelementptr inbounds i32, ptr %0, i64 %1
  ret ptr %add.ptr
}

; Function Attrs: mustprogress nounwind uwtable
define linkonce_odr dso_local noundef i32 @_ZN4base6subtle14NoBarrier_LoadEPVKi(ptr noundef %ptr) #2 comdat personality ptr @__gxx_personality_v0 {
entry:
  %this.addr.i = alloca ptr, align 8
  %__m.addr.i = alloca i32, align 4
  %__b.i = alloca i32, align 4
  %atomic-temp.i = alloca i32, align 4
  %ptr.addr = alloca ptr, align 8
  store ptr %ptr, ptr %ptr.addr, align 8
  %0 = load ptr, ptr %ptr.addr, align 8
  store ptr %0, ptr %this.addr.i, align 8
  store i32 0, ptr %__m.addr.i, align 4
  %this1.i = load ptr, ptr %this.addr.i, align 8
  %1 = load i32, ptr %__m.addr.i, align 4
  %call.i = invoke noundef i32 @_ZStanSt12memory_orderSt23__memory_order_modifier(i32 noundef %1, i32 noundef 65535)
          to label %invoke.cont.i unwind label %terminate.lpad.i

invoke.cont.i:                                    ; preds = %entry
  store i32 %call.i, ptr %__b.i, align 4
  %2 = load i32, ptr %__m.addr.i, align 4
  switch i32 %2, label %monotonic.i [
    i32 1, label %acquire.i
    i32 2, label %acquire.i
    i32 5, label %seqcst.i
  ]

monotonic.i:                                      ; preds = %invoke.cont.i
  %3 = load atomic volatile i32, ptr %this1.i monotonic, align 4
  store i32 %3, ptr %atomic-temp.i, align 4
  br label %_ZNVKSt13__atomic_baseIiE4loadESt12memory_order.exit

acquire.i:                                        ; preds = %invoke.cont.i, %invoke.cont.i
  %4 = load atomic volatile i32, ptr %this1.i acquire, align 4
  store i32 %4, ptr %atomic-temp.i, align 4
  br label %_ZNVKSt13__atomic_baseIiE4loadESt12memory_order.exit

seqcst.i:                                         ; preds = %invoke.cont.i
  %5 = load atomic volatile i32, ptr %this1.i seq_cst, align 4
  store i32 %5, ptr %atomic-temp.i, align 4
  br label %_ZNVKSt13__atomic_baseIiE4loadESt12memory_order.exit

terminate.lpad.i:                                 ; preds = %entry
  %6 = landingpad { ptr, i32 }
          catch ptr null
  %7 = extractvalue { ptr, i32 } %6, 0
  call void @__clang_call_terminate(ptr %7) #9
  unreachable

_ZNVKSt13__atomic_baseIiE4loadESt12memory_order.exit: ; preds = %seqcst.i, %acquire.i, %monotonic.i
  %8 = load i32, ptr %atomic-temp.i, align 4
  ret i32 %8
}

; Function Attrs: mustprogress nounwind uwtable
define linkonce_odr dso_local noundef i32 @_ZNK4base12BucketRanges5rangeEm(ptr noundef nonnull align 8 dereferenceable(28) %this, i64 noundef %i) #2 comdat align 2 {
entry:
  %this.addr = alloca ptr, align 8
  %i.addr = alloca i64, align 8
  store ptr %this, ptr %this.addr, align 8
  store i64 %i, ptr %i.addr, align 8
  %this1 = load ptr, ptr %this.addr, align 8
  %ranges_ = getelementptr inbounds %"class.base::BucketRanges", ptr %this1, i32 0, i32 0
  %0 = load i64, ptr %i.addr, align 8
  %call = call noundef nonnull align 4 dereferenceable(4) ptr @_ZNKSt6vectorIiSaIiEEixEm(ptr noundef nonnull align 8 dereferenceable(24) %ranges_, i64 noundef %0) #8
  %1 = load i32, ptr %call, align 4
  ret i32 %1
}

; Function Attrs: mustprogress uwtable
define dso_local void @_ZNK4base20SampleVectorIterator3GetEPiS1_S1_(ptr noundef nonnull align 8 dereferenceable(40) %this, ptr noundef %min, ptr noundef %max, ptr noundef %count) unnamed_addr #0 align 2 {
entry:
  %this.addr = alloca ptr, align 8
  %min.addr = alloca ptr, align 8
  %max.addr = alloca ptr, align 8
  %count.addr = alloca ptr, align 8
  store ptr %this, ptr %this.addr, align 8
  store ptr %min, ptr %min.addr, align 8
  store ptr %max, ptr %max.addr, align 8
  store ptr %count, ptr %count.addr, align 8
  %this1 = load ptr, ptr %this.addr, align 8
  %0 = load ptr, ptr %min.addr, align 8
  %cmp = icmp ne ptr %0, null
  br i1 %cmp, label %if.then, label %if.end

if.then:                                          ; preds = %entry
  %bucket_ranges_ = getelementptr inbounds %"class.base::SampleVectorIterator", ptr %this1, i32 0, i32 3
  %1 = load ptr, ptr %bucket_ranges_, align 8
  %index_ = getelementptr inbounds %"class.base::SampleVectorIterator", ptr %this1, i32 0, i32 4
  %2 = load i64, ptr %index_, align 8
  %call = call noundef i32 @_ZNK4base12BucketRanges5rangeEm(ptr noundef nonnull align 8 dereferenceable(28) %1, i64 noundef %2)
  %3 = load ptr, ptr %min.addr, align 8
  store i32 %call, ptr %3, align 4
  br label %if.end

if.end:                                           ; preds = %if.then, %entry
  %4 = load ptr, ptr %max.addr, align 8
  %cmp2 = icmp ne ptr %4, null
  br i1 %cmp2, label %if.then3, label %if.end7

if.then3:                                         ; preds = %if.end
  %bucket_ranges_4 = getelementptr inbounds %"class.base::SampleVectorIterator", ptr %this1, i32 0, i32 3
  %5 = load ptr, ptr %bucket_ranges_4, align 8
  %index_5 = getelementptr inbounds %"class.base::SampleVectorIterator", ptr %this1, i32 0, i32 4
  %6 = load i64, ptr %index_5, align 8
  %add = add i64 %6, 1
  %call6 = call noundef i32 @_ZNK4base12BucketRanges5rangeEm(ptr noundef nonnull align 8 dereferenceable(28) %5, i64 noundef %add)
  %7 = load ptr, ptr %max.addr, align 8
  store i32 %call6, ptr %7, align 4
  br label %if.end7

if.end7:                                          ; preds = %if.then3, %if.end
  %8 = load ptr, ptr %count.addr, align 8
  %cmp8 = icmp ne ptr %8, null
  br i1 %cmp8, label %if.then9, label %if.end12

if.then9:                                         ; preds = %if.end7
  %counts_ = getelementptr inbounds %"class.base::SampleVectorIterator", ptr %this1, i32 0, i32 1
  %9 = load ptr, ptr %counts_, align 8
  %index_10 = getelementptr inbounds %"class.base::SampleVectorIterator", ptr %this1, i32 0, i32 4
  %10 = load i64, ptr %index_10, align 8
  %arrayidx = getelementptr inbounds i32, ptr %9, i64 %10
  %call11 = call noundef i32 @_ZN4base6subtle14NoBarrier_LoadEPVKi(ptr noundef %arrayidx)
  %11 = load ptr, ptr %count.addr, align 8
  store i32 %call11, ptr %11, align 4
  br label %if.end12

if.end12:                                         ; preds = %if.then9, %if.end7
  ret void
}