; Function Attrs: mustprogress nofree norecurse nounwind willreturn uwtable
define dso_local void @_ZNK4base20SampleVectorIterator3GetEPiS1_S1_(ptr nocapture noundef nonnull readonly align 8 dereferenceable(40) %this, ptr noundef writeonly %min, ptr noundef writeonly %max, ptr noundef writeonly %count) unnamed_addr #6 align 2 personality ptr @__gxx_personality_v0 {
entry:
  %cmp.not = icmp eq ptr %min, null
  br i1 %cmp.not, label %if.end, label %if.then

if.then:                                          ; preds = %entry
  %bucket_ranges_ = getelementptr inbounds i8, ptr %this, i64 24
  %0 = load ptr, ptr %bucket_ranges_, align 8
  %index_ = getelementptr inbounds i8, ptr %this, i64 32
  %1 = load i64, ptr %index_, align 8
  %2 = load ptr, ptr %0, align 8
  %add.ptr.i.i = getelementptr inbounds i32, ptr %2, i64 %1
  %3 = load i32, ptr %add.ptr.i.i, align 4
  store i32 %3, ptr %min, align 4
  br label %if.end

if.end:                                           ; preds = %if.then, %entry
  %cmp2.not = icmp eq ptr %max, null
  br i1 %cmp2.not, label %if.end7, label %if.then3

if.then3:                                         ; preds = %if.end
  %bucket_ranges_4 = getelementptr inbounds i8, ptr %this, i64 24
  %4 = load ptr, ptr %bucket_ranges_4, align 8
  %index_5 = getelementptr inbounds i8, ptr %this, i64 32
  %5 = load i64, ptr %index_5, align 8
  %6 = load ptr, ptr %4, align 8
  %7 = getelementptr i32, ptr %6, i64 %5
  %add.ptr.i.i4 = getelementptr i8, ptr %7, i64 4
  %8 = load i32, ptr %add.ptr.i.i4, align 4
  store i32 %8, ptr %max, align 4
  br label %if.end7

if.end7:                                          ; preds = %if.then3, %if.end
  %cmp8.not = icmp eq ptr %count, null
  br i1 %cmp8.not, label %if.end12, label %if.then9

if.then9:                                         ; preds = %if.end7
  %counts_ = getelementptr inbounds i8, ptr %this, i64 8
  %9 = load ptr, ptr %counts_, align 8
  %index_10 = getelementptr inbounds i8, ptr %this, i64 32
  %10 = load i64, ptr %index_10, align 8
  %arrayidx = getelementptr inbounds i32, ptr %9, i64 %10
  %11 = load atomic volatile i32, ptr %arrayidx monotonic, align 4
  store i32 %11, ptr %count, align 4
  br label %if.end12

if.end12:                                         ; preds = %if.then9, %if.end7
  ret void
}